; Function Attrs: mustprogress nofree norecurse nosync nounwind willreturn memory(write, argmem: readwrite, inaccessiblemem: none) uwtable
define internal void @start_pass_merged_upsample(ptr nocapture noundef readonly %0) #1 {
  %2 = getelementptr inbounds i8, ptr %0, i64 608
  %3 = load ptr, ptr %2, align 8
  %4 = getelementptr inbounds i8, ptr %3, i64 88
  store i32 0, ptr %4, align 8
  %5 = getelementptr inbounds i8, ptr %0, i64 140
  %6 = load i32, ptr %5, align 4
  %7 = getelementptr inbounds i8, ptr %3, i64 96
  store i32 %6, ptr %7, align 8
  ret void
}